(dp0
S'METTS MARK'
p1
(dp2
S'to_poi_percentage'
p3
F0.034482758620689655
sS'to_messages'
p4
I807
sS'deferral_payments'
p5
S'NaN'
p6
sS'total_employee_worth'
p7
I1550850
sS'expenses'
p8
I94299
sS'sqrt_total_poi_percentage'
p9
F0.21598777211534287
sS'poi'
p10
I00
sS'deferred_income'
p11
g6
sS'from_poi_percentage'
p12
F0.04708798017348203
sS'email_address'
p13
S'mark.metts@enron.com'
p14
sS'long_term_incentive'
p15
g6
sS'restricted_stock_deferred'
p16
g6
sS'shared_receipt_with_poi'
p17
I702
sS'loan_advances'
p18
g6
sS'from_messages'
p19
I29
sS'other'
p20
I1740
sS'director_fees'
p21
g6
sS'bonus'
p22
I600000
sS'total_stock_value'
p23
I585062
sS'from_poi_to_this_person'
p24
I38
sS'from_this_person_to_poi'
p25
I1
sS'total_poi_percentage'
p26
F0.04665071770334928
sS'restricted_stock'
p27
I585062
sS'salary'
p28
I365788
sS'total_payments'
p29
I1061827
sS'exercised_stock_options'
p30
g6
sS'log_total_employee_worth'
p31
F14.254313725682948
ssS'BAXTER JOHN C'
p32
(dp33
g3
S'NaN'
p34
sg4
g6
sg5
I1295738
sg7
I12090360
sg8
I11200
sg9
g34
sg10
I00
sg11
I-1386055
sg12
g34
sg13
g6
sg15
I1586055
sg16
g6
sg17
g6
sg18
g6
sg19
g6
sg20
I2660303
sg21
g6
sg22
I1200000
sg23
I10623258
sg24
g6
sg25
g6
sg26
g34
sg27
I3942714
sg28
I267102
sg29
I5634343
sg30
I6680544
sg31
F16.307918998822597
ssS'ELLIOTT STEVEN'
p35
(dp36
g3
g34
sg4
g6
sg5
g6
sg7
I7199676
sg8
I78552
sg9
g34
sg10
I00
sg11
I-400729
sg12
g34
sg13
S'steven.elliott@enron.com'
p37
sg15
g6
sg16
g6
sg17
g6
sg18
g6
sg19
g6
sg20
I12961
sg21
g6
sg22
I350000
sg23
I6678735
sg24
g6
sg25
g6
sg26
g34
sg27
I1788391
sg28
I170941
sg29
I211725
sg30
I4890344
sg31
F15.789546582973754
ssS'CORDES WILLIAM R'
p38
(dp39
g3
F0.0
sg4
I764
sg5
g6
sg7
g34
sg8
g6
sg9
F0.11351915229662494
sg10
I00
sg11
g6
sg12
F0.013089005235602094
sg13
S'bill.cordes@enron.com'
p40
sg15
g6
sg16
g6
sg17
I58
sg18
g6
sg19
I12
sg20
g6
sg21
g6
sg22
g6
sg23
I1038185
sg24
I10
sg25
I0
sg26
F0.01288659793814433
sg27
I386335
sg28
g6
sg29
g6
sg30
I651850
sg31
g34
ssS'HANNON KEVIN P'
p41
(dp42
g3
F0.65625
sg4
I1045
sg5
g6
sg7
I8134358
sg8
I34039
sg9
F0.22183500774052464
sg10
I01
sg11
I-3117011
sg12
F0.03062200956937799
sg13
S'kevin.hannon@enron.com'
p43
sg15
I1617011
sg16
g6
sg17
I1035
sg18
g6
sg19
I32
sg20
I11350
sg21
g6
sg22
I1500000
sg23
I6391065
sg24
I32
sg25
I21
sg26
F0.04921077065923862
sg27
I853064
sg28
I243293
sg29
I288682
sg30
I5538001
sg31
F15.91160737726661
ssS'MORDAUNT KRISTINA M'
p44
(dp45
g3
g34
sg4
g6
sg5
g6
sg7
I800603
sg8
I35018
sg9
g34
sg10
I00
sg11
g6
sg12
g34
sg13
S'kristina.mordaunt@enron.com'
p46
sg15
g6
sg16
g6
sg17
g6
sg18
g6
sg19
g6
sg20
I1411
sg21
g6
sg22
I325000
sg23
I208510
sg24
g6
sg25
g6
sg26
g34
sg27
I208510
sg28
I267093
sg29
I628522
sg30
g6
sg31
F13.593120472723198
ssS'MEYER ROCKFORD G'
p47
(dp48
g3
F0.0
sg4
I232
sg5
I1848227
sg7
g34
sg8
g6
sg9
F0.0
sg10
I00
sg11
g6
sg12
F0.0
sg13
S'rockford.meyer@enron.com'
p49
sg15
g6
sg16
g6
sg17
I22
sg18
g6
sg19
I28
sg20
g6
sg21
g6
sg22
g6
sg23
I955873
sg24
I0
sg25
I0
sg26
F0.0
sg27
I462384
sg28
g6
sg29
I1848227
sg30
I493489
sg31
g34
ssS'MCMAHON JEFFREY'
p50
(dp51
g3
F0.5416666666666666
sg4
I2355
sg5
g6
sg7
I4633303
sg8
I137108
sg9
F0.18696605205016756
sg10
I00
sg11
g6
sg12
F0.024628450106157114
sg13
S'jeffrey.mcmahon@enron.com'
p52
sg15
I694862
sg16
g6
sg17
I2228
sg18
g6
sg19
I48
sg20
I297353
sg21
g6
sg22
I2600000
sg23
I1662855
sg24
I58
sg25
I26
sg26
F0.03495630461922597
sg27
I558801
sg28
I370448
sg29
I4099771
sg30
I1104054
sg31
F15.348780562648791
ssS'HORTON STANLEY C'
p53
(dp54
g3
F0.013979496738117428
sg4
I2350
sg5
I3131860
sg7
g34
sg8
g6
sg9
F0.13128725143636993
sg10
I00
sg11
g6
sg12
F0.01872340425531915
sg13
S'stanley.horton@enron.com'
p55
sg15
g6
sg16
g6
sg17
I1074
sg18
g6
sg19
I1073
sg20
g6
sg21
g6
sg22
g6
sg23
I7256648
sg24
I44
sg25
I15
sg26
F0.017236342389716622
sg27
I2046079
sg28
g6
sg29
I3131860
sg30
I5210569
sg31
g34
ssS'PIPER GREGORY F'
p56
(dp57
g3
F0.21621621621621623
sg4
I1238
sg5
I1130036
sg7
I1477381
sg8
I43057
sg9
F0.273235309296905
sg10
I00
sg11
I-33333
sg12
F0.049273021001615507
sg13
S'greg.piper@enron.com'
p58
sg15
g6
sg16
I-409554
sg17
I742
sg18
g6
sg19
I222
sg20
I778
sg21
g6
sg22
I400000
sg23
I880290
sg24
I61
sg25
I48
sg26
F0.07465753424657534
sg27
I409554
sg28
I197091
sg29
I1737629
sg30
I880290
sg31
F14.205781483563593
ssS'HUMPHREY GENE E'
p59
(dp60
g3
F1.0
sg4
I128
sg5
I2964506
sg7
g34
sg8
I4994
sg9
F0.43151697133684574
sg10
I00
sg11
g6
sg12
F0.078125
sg13
S'gene.humphrey@enron.com'
p61
sg15
g6
sg16
g6
sg17
I119
sg18
g6
sg19
I17
sg20
g6
sg21
g6
sg22
g6
sg23
I2282768
sg24
I10
sg25
I17
sg26
F0.18620689655172415
sg27
g6
sg28
I130724
sg29
I3100224
sg30
I2282768
sg31
g34
ssS'UMANOFF ADAM S'
p62
(dp63
g3
F0.0
sg4
I111
sg5
g6
sg7
g34
sg8
I53122
sg9
F0.30499714066520933
sg10
I00
sg11
g6
sg12
F0.10810810810810811
sg13
S'adam.umanoff@enron.com'
p64
sg15
g6
sg16
g6
sg17
I41
sg18
g6
sg19
I18
sg20
g6
sg21
g6
sg22
I788750
sg23
g6
sg24
I12
sg25
I0
sg26
F0.09302325581395349
sg27
g6
sg28
I288589
sg29
I1130461
sg30
g6
sg31
g34
ssS'BLACHMAN JEREMY M'
p65
(dp66
g3
F0.14285714285714285
sg4
I2475
sg5
g6
sg7
I2052900
sg8
I84208
sg9
F0.10415243641918817
sg10
I00
sg11
g6
sg12
F0.010101010101010102
sg13
S'jeremy.blachman@enron.com'
p67
sg15
I831809
sg16
g6
sg17
I2326
sg18
g6
sg19
I14
sg20
I272
sg21
g6
sg22
I850000
sg23
I954354
sg24
I25
sg25
I2
sg26
F0.010847730012053034
sg27
I189041
sg28
I248546
sg29
I2014835
sg30
I765313
sg31
F14.534763985608699
ssS'SUNDE MARTIN'
p68
(dp69
g3
F0.34210526315789475
sg4
I2647
sg5
g6
sg7
I1656406
sg8
g6
sg9
F0.1364623535237338
sg10
I00
sg11
g6
sg12
F0.013978088401964487
sg13
S'marty.sunde@enron.com'
p70
sg15
I476451
sg16
g6
sg17
I2565
sg18
g6
sg19
I38
sg20
I111122
sg21
g6
sg22
I700000
sg23
I698920
sg24
I37
sg25
I13
sg26
F0.0186219739292365
sg27
I698920
sg28
I257486
sg29
I1545059
sg30
g6
sg31
F14.32016075296044
ssS'GIBBS DANA R'
p71
(dp72
g3
F0.0
sg4
I169
sg5
I504610
sg7
g34
sg8
g6
sg9
F0.0
sg10
I00
sg11
g6
sg12
F0.0
sg13
S'dana.gibbs@enron.com'
p73
sg15
I461912
sg16
g6
sg17
I23
sg18
g6
sg19
I12
sg20
g6
sg21
g6
sg22
g6
sg23
I2218275
sg24
I0
sg25
I0
sg26
F0.0
sg27
g6
sg28
g6
sg29
I966522
sg30
I2218275
sg31
g34
ssS'LOWRY CHARLES P'
p74
(dp75
g3
g34
sg4
g6
sg5
g6
sg7
g34
sg8
g6
sg9
g34
sg10
I00
sg11
g6
sg12
g34
sg13
g6
sg15
g6
sg16
I-153686
sg17
g6
sg18
g6
sg19
g6
sg20
g6
sg21
g6
sg22
g6
sg23
I372205
sg24
g6
sg25
g6
sg26
g34
sg27
I153686
sg28
g6
sg29
g6
sg30
I372205
sg31
g34
ssS'COLWELL WESLEY'
p76
(dp77
g3
F0.275
sg4
I1758
sg5
I27610
sg7
I2186784
sg8
I16514
sg9
F0.37363023841918774
sg10
I01
sg11
I-144062
sg12
F0.13651877133105803
sg13
S'wes.colwell@enron.com'
p78
sg15
g6
sg16
g6
sg17
I1132
sg18
g6
sg19
I40
sg20
I101740
sg21
g6
sg22
I1200000
sg23
I698242
sg24
I240
sg25
I11
sg26
F0.13959955506117908
sg27
I698242
sg28
I288542
sg29
I1490344
sg30
g6
sg31
F14.59794252934918
ssS'MULLER MARK S'
p79
(dp80
g3
F0.0
sg4
I136
sg5
I842924
sg7
I2768502
sg8
g6
sg9
F0.28097574347450816
sg10
I00
sg11
I-719000
sg12
F0.08823529411764706
sg13
S's..muller@enron.com'
p81
sg15
I1725545
sg16
g6
sg17
I114
sg18
g6
sg19
I16
sg20
I947
sg21
g6
sg22
I1100000
sg23
I1416848
sg24
I12
sg25
I0
sg26
F0.07894736842105263
sg27
I360528
sg28
I251654
sg29
I3202070
sg30
I1056320
sg31
F14.833816937657756
ssS'JACKSON CHARLENE R'
p82
(dp83
g3
F0.3392857142857143
sg4
I258
sg5
g6
sg7
I1264293
sg8
I10181
sg9
F0.37433593006153154
sg10
I00
sg11
g6
sg12
F0.09689922480620156
sg13
S'charlene.jackson@enron.com'
p84
sg15
g6
sg16
g6
sg17
I117
sg18
g6
sg19
I56
sg20
I2435
sg21
g6
sg22
I250000
sg23
I725735
sg24
I25
sg25
I19
sg26
F0.14012738853503184
sg27
I540672
sg28
I288558
sg29
I551174
sg30
I185063
sg31
F14.05002363062406
ssS'WESTFAHL RICHARD K'
p85
(dp86
g3
g34
sg4
g6
sg5
g6
sg7
g34
sg8
I51870
sg9
g34
sg10
I00
sg11
I-10800
sg12
g34
sg13
S'dick.westfahl@enron.com'
p87
sg15
I256191
sg16
g6
sg17
g6
sg18
g6
sg19
g6
sg20
I401130
sg21
g6
sg22
g6
sg23
I384930
sg24
g6
sg25
g6
sg26
g34
sg27
I384930
sg28
I63744
sg29
I762135
sg30
g6
sg31
g34
ssS'WALTERS GARETH W'
p88
(dp89
g3
g34
sg4
g6
sg5
I53625
sg7
g34
sg8
I33785
sg9
g34
sg10
I00
sg11
g6
sg12
g34
sg13
g6
sg15
g6
sg16
g6
sg17
g6
sg18
g6
sg19
g6
sg20
g6
sg21
g6
sg22
g6
sg23
I1030329
sg24
g6
sg25
g6
sg26
g34
sg27
g6
sg28
g6
sg29
I87410
sg30
I1030329
sg31
g34
ssS'WALLS JR ROBERT H'
p90
(dp91
g3
F0.0
sg4
I671
sg5
g6
sg7
I7106088
sg8
I50936
sg9
F0.14424920636638422
sg10
I00
sg11
g6
sg12
F0.02533532041728763
sg13
S'rob.walls@enron.com'
p92
sg15
I540751
sg16
g6
sg17
I215
sg18
g6
sg19
I146
sg20
I2
sg21
g6
sg22
I850000
sg23
I5898997
sg24
I17
sg25
I0
sg26
F0.0208078335373317
sg27
I1552453
sg28
I357091
sg29
I1798780
sg30
I4346544
sg31
F15.776462439387359
ssS'KITCHEN LOUISE'
p93
(dp94
g3
F0.11226851851851852
sg4
I8305
sg5
g6
sg7
I3918585
sg8
I5774
sg9
F0.21060302232176892
sg10
I00
sg11
g6
sg12
F0.030222757375075255
sg13
S'louise.kitchen@enron.com'
p95
sg15
g6
sg16
g6
sg17
I3669
sg18
g6
sg19
I1728
sg20
I93925
sg21
g6
sg22
I3100000
sg23
I547143
sg24
I251
sg25
I194
sg26
F0.044353633011063494
sg27
I466101
sg28
I271442
sg29
I3471141
sg30
I81042
sg31
F15.181241177213758
ssS'CHAN RONNIE'
p96
(dp97
g3
g34
sg4
g6
sg5
g6
sg7
g34
sg8
g6
sg9
g34
sg10
I00
sg11
I-98784
sg12
g34
sg13
g6
sg15
g6
sg16
I-32460
sg17
g6
sg18
g6
sg19
g6
sg20
g6
sg21
I98784
sg22
g6
sg23
g6
sg24
g6
sg25
g6
sg26
g34
sg27
I32460
sg28
g6
sg29
g6
sg30
g6
sg31
g34
ssS'BELFER ROBERT'
p98
(dp99
g3
g34
sg4
g6
sg5
I-102500
sg7
g34
sg8
g6
sg9
g34
sg10
I00
sg11
g6
sg12
g34
sg13
g6
sg15
g6
sg16
I44093
sg17
g6
sg18
g6
sg19
g6
sg20
g6
sg21
I3285
sg22
g6
sg23
I-44093
sg24
g6
sg25
g6
sg26
g34
sg27
g6
sg28
g6
sg29
I102500
sg30
I3285
sg31
g34
ssS'SHANKMAN JEFFREY A'
p100
(dp101
g3
F0.030958597538232
sg4
I3221
sg5
g6
sg7
I4376145
sg8
I178979
sg9
F0.1731757314250229
sg10
I00
sg11
g6
sg12
F0.029183483390251473
sg13
S'jeffrey.shankman@enron.com'
p102
sg15
I554422
sg16
g6
sg17
I1730
sg18
g6
sg19
I2681
sg20
I1191
sg21
g6
sg22
I2000000
sg23
I2072035
sg24
I94
sg25
I83
sg26
F0.029989833954591663
sg27
I630137
sg28
I304110
sg29
I3038702
sg30
I1441898
sg31
F15.291678757818357
ssS'WODRASKA JOHN'
p103
(dp104
g3
g34
sg4
g6
sg5
g6
sg7
g34
sg8
g6
sg9
g34
sg10
I00
sg11
g6
sg12
g34
sg13
S'john.wodraska@enron.com'
p105
sg15
g6
sg16
g6
sg17
g6
sg18
g6
sg19
g6
sg20
I189583
sg21
g6
sg22
g6
sg23
g6
sg24
g6
sg25
g6
sg26
g34
sg27
g6
sg28
g6
sg29
I189583
sg30
g6
sg31
g34
ssS'BERGSIEKER RICHARD P'
p106
(dp107
g3
F0.0
sg4
I383
sg5
g6
sg7
I1097171
sg8
I59175
sg9
F0.09513029883089882
sg10
I00
sg11
I-485813
sg12
F0.010443864229765013
sg13
S'rick.bergsieker@enron.com'
p108
sg15
I180250
sg16
g6
sg17
I233
sg18
g6
sg19
I59
sg20
I427316
sg21
g6
sg22
I250000
sg23
I659249
sg24
I4
sg25
I0
sg26
F0.00904977375565611
sg27
I659249
sg28
I187922
sg29
I618850
sg30
g6
sg31
F13.908245606781225
ssS'URQUHART JOHN A'
p109
(dp110
g3
g34
sg4
g6
sg5
g6
sg7
g34
sg8
I228656
sg9
g34
sg10
I00
sg11
I-36666
sg12
g34
sg13
g6
sg15
g6
sg16
g6
sg17
g6
sg18
g6
sg19
g6
sg20
g6
sg21
I36666
sg22
g6
sg23
g6
sg24
g6
sg25
g6
sg26
g34
sg27
g6
sg28
g6
sg29
I228656
sg30
g6
sg31
g34
ssS'BIBI PHILIPPE A'
p111
(dp112
g3
F0.2
sg4
I1607
sg5
g6
sg7
I3057441
sg8
I38559
sg9
F0.1371936616222262
sg10
I00
sg11
g6
sg12
F0.01431238332296204
sg13
S'philippe.bibi@enron.com'
p113
sg15
I369721
sg16
g6
sg17
I1336
sg18
g6
sg19
I40
sg20
I425688
sg21
g6
sg22
I1000000
sg23
I1843816
sg24
I23
sg25
I8
sg26
F0.018822100789313904
sg27
I378082
sg28
I213625
sg29
I2047593
sg30
I1465734
sg31
F14.933088849546158
ssS'RIEKER PAULA H'
p114
(dp115
g3
F0.5853658536585366
sg4
I1328
sg5
I214678
sg7
I2868088
sg8
I33271
sg9
F0.24262161533332177
sg10
I01
sg11
I-100000
sg12
F0.02635542168674699
sg13
S'paula.rieker@enron.com'
p116
sg15
g6
sg16
g6
sg17
I1258
sg18
g6
sg19
I82
sg20
I1950
sg21
g6
sg22
I700000
sg23
I1918887
sg24
I35
sg25
I48
sg26
F0.058865248226950356
sg27
I283649
sg28
I249201
sg29
I1099100
sg30
I1635238
sg31
F14.86915616363399
ssS'WHALEY DAVID A'
p117
(dp118
g3
g34
sg4
g6
sg5
g6
sg7
g34
sg8
g6
sg9
g34
sg10
I00
sg11
g6
sg12
g34
sg13
g6
sg15
g6
sg16
g6
sg17
g6
sg18
g6
sg19
g6
sg20
g6
sg21
g6
sg22
g6
sg23
I98718
sg24
g6
sg25
g6
sg26
g34
sg27
g6
sg28
g6
sg29
g6
sg30
I98718
sg31
g34
ssS'BECK SALLY W'
p119
(dp120
g3
F0.08887865530739121
sg4
I7315
sg5
g6
sg7
I1057357
sg8
I37172
sg9
F0.21321900350376394
sg10
I00
sg11
g6
sg12
F0.01968557758031442
sg13
S'sally.beck@enron.com'
p121
sg15
g6
sg16
g6
sg17
I2639
sg18
g6
sg19
I4343
sg20
I566
sg21
g6
sg22
I700000
sg23
I126027
sg24
I144
sg25
I386
sg26
F0.0454623434551381
sg27
I126027
sg28
I231330
sg29
I969068
sg30
g6
sg31
F13.871282956172614
ssS'HAUG DAVID L'
p122
(dp123
g3
F0.3684210526315789
sg4
I573
sg5
g6
sg7
g34
sg8
I475
sg9
F0.13631243920156766
sg10
I00
sg11
g6
sg12
F0.006980802792321117
sg13
S'david.haug@enron.com'
p124
sg15
g6
sg16
g6
sg17
I471
sg18
g6
sg19
I19
sg20
g6
sg21
g6
sg22
g6
sg23
I2217299
sg24
I4
sg25
I7
sg26
F0.018581081081081082
sg27
I2217299
sg28
g6
sg29
I475
sg30
g6
sg31
g34
ssS'ECHOLS JOHN B'
p125
(dp126
g3
g34
sg4
g6
sg5
g6
sg7
I1391186
sg8
I21530
sg9
g34
sg10
I00
sg11
g6
sg12
g34
sg13
S'john.echols@enron.com'
p127
sg15
I2234774
sg16
g6
sg17
g6
sg18
g6
sg19
g6
sg20
I53775
sg21
g6
sg22
I200000
sg23
I1008941
sg24
g6
sg25
g6
sg26
g34
sg27
I407503
sg28
I182245
sg29
I2692324
sg30
I601438
sg31
F14.145667178716831
ssS'MENDELSOHN JOHN'
p128
(dp129
g3
g34
sg4
g6
sg5
g6
sg7
g34
sg8
I148
sg9
g34
sg10
I00
sg11
I-103750
sg12
g34
sg13
g6
sg15
g6
sg16
g6
sg17
g6
sg18
g6
sg19
g6
sg20
g6
sg21
I103750
sg22
g6
sg23
g6
sg24
g6
sg25
g6
sg26
g34
sg27
g6
sg28
g6
sg29
I148
sg30
g6
sg31
g34
ssS'HICKERSON GARY J'
p130
(dp131
g3
F0.037037037037037035
sg4
I1320
sg5
g6
sg7
I2352884
sg8
I98849
sg9
F0.17446492596928176
sg10
I00
sg11
g6
sg12
F0.030303030303030304
sg13
S'gary.hickerson@enron.com'
p132
sg15
I69223
sg16
g6
sg17
I900
sg18
g6
sg19
I27
sg20
I1936
sg21
g6
sg22
I1700000
sg23
I441096
sg24
I40
sg25
I1
sg26
F0.030438010393466965
sg27
I441096
sg28
I211788
sg29
I2081796
sg30
g6
sg31
F14.671152367726744
ssS'CLINE KENNETH W'
p133
(dp134
g3
g34
sg4
g6
sg5
g6
sg7
g34
sg8
g6
sg9
g34
sg10
I00
sg11
g6
sg12
g34
sg13
g6
sg15
g6
sg16
I-472568
sg17
g6
sg18
g6
sg19
g6
sg20
g6
sg21
g6
sg22
g6
sg23
I189518
sg24
g6
sg25
g6
sg26
g34
sg27
I662086
sg28
g6
sg29
g6
sg30
g6
sg31
g34
ssS'LEWIS RICHARD'
p135
(dp136
g3
F0.0
sg4
I952
sg5
g6
sg7
g34
sg8
g6
sg9
F0.10111848928487621
sg10
I00
sg11
g6
sg12
F0.01050420168067227
sg13
S'richard.lewis@enron.com'
p137
sg15
g6
sg16
g6
sg17
I739
sg18
g6
sg19
I26
sg20
g6
sg21
g6
sg22
g6
sg23
I850477
sg24
I10
sg25
I0
sg26
F0.010224948875255624
sg27
g6
sg28
g6
sg29
g6
sg30
I850477
sg31
g34
ssS'HAYES ROBERT E'
p138
(dp139
g3
F0.0
sg4
I504
sg5
I7961
sg7
g34
sg8
g6
sg9
F0.17609018126512477
sg10
I00
sg11
g6
sg12
F0.031746031746031744
sg13
S'robert.hayes@enron.com'
p140
sg15
g6
sg16
g6
sg17
I50
sg18
g6
sg19
I12
sg20
g6
sg21
g6
sg22
g6
sg23
I151418
sg24
I16
sg25
I0
sg26
F0.031007751937984496
sg27
I151418
sg28
g6
sg29
I7961
sg30
g6
sg31
g34
ssS'MCCARTY DANNY J'
p141
(dp142
g3
F0.009302325581395349
sg4
I1433
sg5
g6
sg7
g34
sg8
g6
sg9
F0.12799802789742923
sg10
I00
sg11
g6
sg12
F0.017445917655268667
sg13
S'danny.mccarty@enron.com'
p143
sg15
g6
sg16
g6
sg17
I508
sg18
g6
sg19
I215
sg20
g6
sg21
g6
sg22
g6
sg23
I758931
sg24
I25
sg25
I2
sg26
F0.016383495145631068
sg27
I94556
sg28
g6
sg29
g6
sg30
I664375
sg31
g34
ssS'KOPPER MICHAEL J'
p144
(dp145
g3
g34
sg4
g6
sg5
g6
sg7
I2009337
sg8
I118134
sg9
g34
sg10
I01
sg11
g6
sg12
g34
sg13
S'michael.kopper@enron.com'
p146
sg15
I602671
sg16
g6
sg17
g6
sg18
g6
sg19
g6
sg20
I907502
sg21
g6
sg22
I800000
sg23
I985032
sg24
g6
sg25
g6
sg26
g34
sg27
I985032
sg28
I224305
sg29
I2652612
sg30
g6
sg31
F14.513315374876267
ssS'LEFF DANIEL P'
p147
(dp148
g3
F0.2222222222222222
sg4
I2822
sg5
g6
sg7
I1634274
sg8
g6
sg9
F0.16755971025020736
sg10
I00
sg11
g6
sg12
F0.02374202693125443
sg13
S'dan.leff@enron.com'
p149
sg15
I1387399
sg16
g6
sg17
I2672
sg18
g6
sg19
I63
sg20
I3083
sg21
g6
sg22
I1000000
sg23
I360528
sg24
I67
sg25
I14
sg26
F0.028076256499133447
sg27
I360528
sg28
I273746
sg29
I2664228
sg30
g6
sg31
F14.306709227002756
ssS'LAVORATO JOHN J'
p150
(dp151
g3
F0.15899419729206962
sg4
I7259
sg5
g6
sg7
I13506432
sg8
I49537
sg9
F0.3088495647345695
sg10
I00
sg11
g6
sg12
F0.07273729163796666
sg13
S'john.lavorato@enron.com'
p152
sg15
I2035380
sg16
g6
sg17
I3962
sg18
g6
sg19
I2585
sg20
I1552
sg21
g6
sg22
I8000000
sg23
I5167144
sg24
I528
sg25
I411
sg26
F0.09538805363673304
sg27
I1008149
sg28
I339288
sg29
I10425757
sg30
I4158995
sg31
F16.418676574389487
ssS'BERBERIAN DAVID'
p153
(dp154
g3
g34
sg4
g6
sg5
g6
sg7
g34
sg8
I11892
sg9
g34
sg10
I00
sg11
g6
sg12
g34
sg13
S'david.berberian@enron.com'
p155
sg15
g6
sg16
g6
sg17
g6
sg18
g6
sg19
g6
sg20
g6
sg21
g6
sg22
g6
sg23
I2493616
sg24
g6
sg25
g6
sg26
g34
sg27
I869220
sg28
I216582
sg29
I228474
sg30
I1624396
sg31
g34
ssS'DETMERING TIMOTHY J'
p156
(dp157
g3
g34
sg4
g6
sg5
I875307
sg7
I2663365
sg8
I52255
sg9
g34
sg10
I00
sg11
I-775241
sg12
g34
sg13
S'timothy.detmering@enron.com'
p158
sg15
I415657
sg16
I-315068
sg17
g6
sg18
g6
sg19
g6
sg20
I1105
sg21
g6
sg22
I425000
sg23
I2027865
sg24
g6
sg25
g6
sg26
g34
sg27
I315068
sg28
I210500
sg29
I1204583
sg30
I2027865
sg31
F14.795100918865991
ssS'WAKEHAM JOHN'
p159
(dp160
g3
g34
sg4
g6
sg5
g6
sg7
g34
sg8
I103773
sg9
g34
sg10
I00
sg11
g6
sg12
g34
sg13
g6
sg15
g6
sg16
g6
sg17
g6
sg18
g6
sg19
g6
sg20
g6
sg21
I109298
sg22
g6
sg23
g6
sg24
g6
sg25
g6
sg26
g34
sg27
g6
sg28
g6
sg29
I213071
sg30
g6
sg31
g34
ssS'POWERS WILLIAM'
p161
(dp162
g3
F0.0
sg4
I653
sg5
g6
sg7
g34
sg8
g6
sg9
F0.0
sg10
I00
sg11
I-17500
sg12
F0.0
sg13
S'ken.powers@enron.com'
p163
sg15
g6
sg16
g6
sg17
I12
sg18
g6
sg19
I26
sg20
g6
sg21
I17500
sg22
g6
sg23
g6
sg24
I0
sg25
I0
sg26
F0.0
sg27
g6
sg28
g6
sg29
g6
sg30
g6
sg31
g34
ssS'GOLD JOSEPH'
p164
(dp165
g3
g34
sg4
g6
sg5
g6
sg7
I1900491
sg8
g6
sg9
g34
sg10
I00
sg11
g6
sg12
g34
sg13
S'joe.gold@enron.com'
p166
sg15
I304805
sg16
g6
sg17
g6
sg18
g6
sg19
g6
sg20
I819288
sg21
g6
sg22
I750000
sg23
I877611
sg24
g6
sg25
g6
sg26
g34
sg27
I441096
sg28
I272880
sg29
I2146973
sg30
I436515
sg31
F14.457622831804331
ssS'BANNANTINE JAMES M'
p167
(dp168
g3
F0.0
sg4
I566
sg5
g6
sg7
g34
sg8
I56301
sg9
F0.25601995720528303
sg10
I00
sg11
I-5104
sg12
F0.06890459363957598
sg13
S'james.bannantine@enron.com'
p169
sg15
g6
sg16
I-560222
sg17
I465
sg18
g6
sg19
I29
sg20
I864523
sg21
g6
sg22
g6
sg23
I5243487
sg24
I39
sg25
I0
sg26
F0.06554621848739496
sg27
I1757552
sg28
I477
sg29
I916197
sg30
I4046157
sg31
g34
ssS'DUNCAN JOHN H'
p170
(dp171
g3
g34
sg4
g6
sg5
g6
sg7
g34
sg8
g6
sg9
g34
sg10
I00
sg11
I-25000
sg12
g34
sg13
g6
sg15
g6
sg16
g6
sg17
g6
sg18
g6
sg19
g6
sg20
g6
sg21
I102492
sg22
g6
sg23
I371750
sg24
g6
sg25
g6
sg26
g34
sg27
g6
sg28
g6
sg29
I77492
sg30
I371750
sg31
g34
ssS'SHAPIRO RICHARD S'
p172
(dp173
g3
F0.053497942386831275
sg4
I15149
sg5
g6
sg7
I1906077
sg8
I137767
sg9
F0.09216428637605263
sg10
I00
sg11
g6
sg12
F0.0048848108786058485
sg13
S'richard.shapiro@enron.com'
p174
sg15
g6
sg16
g6
sg17
I4527
sg18
g6
sg19
I1215
sg20
I705
sg21
g6
sg22
I650000
sg23
I987001
sg24
I74
sg25
I65
sg26
F0.00849425568320704
sg27
I379164
sg28
I269076
sg29
I1057548
sg30
I607837
sg31
F14.460557761121096
ssS'SHERRIFF JOHN R'
p175
(dp176
g3
F0.25
sg4
I3187
sg5
g6
sg7
I5057762
sg8
g6
sg9
F0.12471376193255715
sg10
I00
sg11
g6
sg12
F0.008785691873235017
sg13
S'john.sherriff@enron.com'
p177
sg15
I554422
sg16
g6
sg17
I2103
sg18
g6
sg19
I92
sg20
I1852186
sg21
g6
sg22
I1500000
sg23
I3128982
sg24
I28
sg25
I23
sg26
F0.01555352241537054
sg27
I1293424
sg28
I428780
sg29
I4335388
sg30
I1835558
sg31
F15.436434650933355
ssS'SHELBY REX'
p178
(dp179
g3
F0.358974358974359
sg4
I225
sg5
g6
sg7
I2905460
sg8
I22884
sg9
F0.31980107453341566
sg10
I01
sg11
I-4167
sg12
F0.057777777777777775
sg13
S'rex.shelby@enron.com'
p180
sg15
g6
sg16
g6
sg17
I91
sg18
g6
sg19
I39
sg20
I1573324
sg21
g6
sg22
I200000
sg23
I2493616
sg24
I13
sg25
I14
sg26
F0.10227272727272728
sg27
I869220
sg28
I211844
sg29
I2003885
sg30
I1624396
sg31
F14.882102283408898
ssS'LEMAISTRE CHARLES'
p181
(dp182
g3
g34
sg4
g6
sg5
g6
sg7
g34
sg8
g6
sg9
g34
sg10
I00
sg11
I-25000
sg12
g34
sg13
g6
sg15
g6
sg16
g6
sg17
g6
sg18
g6
sg19
g6
sg20
g6
sg21
I112492
sg22
g6
sg23
I412878
sg24
g6
sg25
g6
sg26
g34
sg27
g6
sg28
g6
sg29
I87492
sg30
I412878
sg31
g34
ssS'DEFFNER JOSEPH M'
p183
(dp184
g3
F0.05405405405405406
sg4
I714
sg5
g6
sg7
I965332
sg8
I41626
sg9
F0.38860677866758314
sg10
I00
sg11
g6
sg12
F0.16106442577030813
sg13
S'joseph.deffner@enron.com'
p185
sg15
I335349
sg16
g6
sg17
I552
sg18
g6
sg19
I74
sg20
I25553
sg21
g6
sg22
I600000
sg23
I159211
sg24
I115
sg25
I4
sg26
F0.15101522842639595
sg27
I141833
sg28
I206121
sg29
I1208649
sg30
I17378
sg31
F13.780227362603211
ssS'KISHKILL JOSEPH G'
p186
(dp187
g3
g34
sg4
g6
sg5
g6
sg7
g34
sg8
I116335
sg9
g34
sg10
I00
sg11
I-51042
sg12
g34
sg13
S'joe.kishkill@enron.com'
p188
sg15
g6
sg16
g6
sg17
g6
sg18
g6
sg19
g6
sg20
I465357
sg21
g6
sg22
g6
sg23
I1034346
sg24
g6
sg25
g6
sg26
g34
sg27
I1034346
sg28
I174246
sg29
I704896
sg30
g6
sg31
g34
ssS'WHALLEY LAWRENCE G'
p189
(dp190
g3
F0.04316546762589928
sg4
I6019
sg5
g6
sg7
I9589501
sg8
I57838
sg9
F0.17871531411185462
sg10
I00
sg11
g6
sg12
F0.03090214321315833
sg13
S'greg.whalley@enron.com'
p191
sg15
I808346
sg16
g6
sg17
I3920
sg18
g6
sg19
I556
sg20
I301026
sg21
g6
sg22
I3000000
sg23
I6079137
sg24
I186
sg25
I24
sg26
F0.03193916349809886
sg27
I2796177
sg28
I510364
sg29
I4677574
sg30
I3282960
sg31
F16.076179412137748
ssS'MCCONNELL MICHAEL S'
p192
(dp193
g3
F0.07075127644055434
sg4
I3329
sg5
g6
sg7
I4566317
sg8
I81364
sg9
F0.21704655654669908
sg10
I00
sg11
g6
sg12
F0.02763592670471613
sg13
S'mike.mcconnell@enron.com'
p194
sg15
I554422
sg16
g6
sg17
I2189
sg18
g6
sg19
I2742
sg20
I540
sg21
g6
sg22
I1100000
sg23
I3101279
sg24
I92
sg25
I194
sg26
F0.047109207708779445
sg27
I1478269
sg28
I365038
sg29
I2101364
sg30
I1623010
sg31
F15.334217529855596
ssS'PIRO JIM'
p195
(dp196
g3
F0.0625
sg4
I58
sg5
g6
sg7
g34
sg8
g6
sg9
F0.11624763874381928
sg10
I00
sg11
g6
sg12
F0.0
sg13
S'jim.piro@enron.com'
p197
sg15
g6
sg16
g6
sg17
I3
sg18
g6
sg19
I16
sg20
g6
sg21
g6
sg22
g6
sg23
I47304
sg24
I0
sg25
I1
sg26
F0.013513513513513514
sg27
I47304
sg28
g6
sg29
g6
sg30
g6
sg31
g34
ssS'DELAINEY DAVID W'
p198
(dp199
g3
F0.198435972629521
sg4
I3093
sg5
g6
sg7
I6979424
sg8
I86174
sg9
F0.33097183623051585
sg10
I01
sg11
g6
sg12
F0.02133850630455868
sg13
S'david.delainey@enron.com'
p200
sg15
I1294981
sg16
g6
sg17
I2097
sg18
g6
sg19
I3069
sg20
I1661
sg21
g6
sg22
I3000000
sg23
I3614261
sg24
I66
sg25
I609
sg26
F0.10954235637779941
sg27
I1323148
sg28
I365163
sg29
I4747979
sg30
I2291113
sg31
F15.758476949843498
ssS'SULLIVAN-SHAKLOVITZ COLLEEN'
p201
(dp202
g3
g34
sg4
g6
sg5
I181993
sg7
I1625154
sg8
g6
sg9
g34
sg10
I00
sg11
g6
sg12
g34
sg13
g6
sg15
I554422
sg16
g6
sg17
g6
sg18
g6
sg19
g6
sg20
I162
sg21
g6
sg22
I100000
sg23
I1362375
sg24
g6
sg25
g6
sg26
g34
sg27
g6
sg28
I162779
sg29
I999356
sg30
I1362375
sg31
F14.301113138486425
ssS'WROBEL BRUCE'
p203
(dp204
g3
g34
sg4
g6
sg5
g6
sg7
g34
sg8
g6
sg9
g34
sg10
I00
sg11
g6
sg12
g34
sg13
g6
sg15
g6
sg16
g6
sg17
g6
sg18
g6
sg19
g6
sg20
g6
sg21
g6
sg22
g6
sg23
I139130
sg24
g6
sg25
g6
sg26
g34
sg27
g6
sg28
g6
sg29
g6
sg30
I139130
sg31
g34
ssS'LINDHOLM TOD A'
p205
(dp206
g3
g34
sg4
g6
sg5
I204075
sg7
I3500665
sg8
I57727
sg9
g34
sg10
I00
sg11
g6
sg12
g34
sg13
S'tod.lindholm@enron.com'
p207
sg15
I175000
sg16
g6
sg17
g6
sg18
g6
sg19
g6
sg20
I2630
sg21
g6
sg22
I200000
sg23
I3064208
sg24
g6
sg25
g6
sg26
g34
sg27
I514847
sg28
I236457
sg29
I875889
sg30
I2549361
sg31
F15.068463508411929
ssS'MEYER JEROME J'
p208
(dp209
g3
g34
sg4
g6
sg5
g6
sg7
g34
sg8
I2151
sg9
g34
sg10
I00
sg11
I-38346
sg12
g34
sg13
g6
sg15
g6
sg16
g6
sg17
g6
sg18
g6
sg19
g6
sg20
g6
sg21
I38346
sg22
g6
sg23
g6
sg24
g6
sg25
g6
sg26
g34
sg27
g6
sg28
g6
sg29
I2151
sg30
g6
sg31
g34
ssS'LAY KENNETH L'
p210
(dp211
g3
F0.4444444444444444
sg4
I4273
sg5
I202911
sg7
I57182399
sg8
I99832
sg9
F0.1796053020267749
sg10
I01
sg11
I-300000
sg12
F0.028785396676807865
sg13
S'kenneth.lay@enron.com'
p212
sg15
I3600000
sg16
g6
sg17
I2411
sg18
I81525000
sg19
I36
sg20
I10359729
sg21
g6
sg22
I7000000
sg23
I49110078
sg24
I123
sg25
I16
sg26
F0.03225806451612903
sg27
I14761694
sg28
I1072321
sg29
I103559793
sg30
I34348384
sg31
F17.861756699207444
ssS'BUTTS ROBERT H'
p213
(dp214
g3
g34
sg4
g6
sg5
g6
sg7
I1429135
sg8
I9410
sg9
g34
sg10
I00
sg11
I-75000
sg12
g34
sg13
S'bob.butts@enron.com'
p215
sg15
I175000
sg16
g6
sg17
g6
sg18
g6
sg19
g6
sg20
I150656
sg21
g6
sg22
I750000
sg23
I417619
sg24
g6
sg25
g6
sg26
g34
sg27
I417619
sg28
I261516
sg29
I1271582
sg30
g6
sg31
F14.17257992410834
ssS'OLSON CINDY K'
p216
(dp217
g3
F0.28846153846153844
sg4
I1184
sg5
I77716
sg7
I3685841
sg8
I63791
sg9
F0.16827701002680037
sg10
I00
sg11
g6
sg12
F0.016891891891891893
sg13
S'cindy.olson@enron.com'
p218
sg15
I100000
sg16
g6
sg17
I856
sg18
g6
sg19
I52
sg20
I972
sg21
g6
sg22
I750000
sg23
I2606763
sg24
I20
sg25
I15
sg26
F0.02831715210355987
sg27
I969729
sg28
I329078
sg29
I1321557
sg30
I1637034
sg31
F15.120009280090521
ssS'MCDONALD REBECCA'
p219
(dp220
g3
F0.07692307692307693
sg4
I894
sg5
g6
sg7
g34
sg8
g6
sg9
F0.24625082899921463
sg10
I00
sg11
g6
sg12
F0.06040268456375839
sg13
S'rebecca.mcdonald@enron.com'
p221
sg15
g6
sg16
g6
sg17
I720
sg18
g6
sg19
I13
sg20
g6
sg21
g6
sg22
g6
sg23
I1691366
sg24
I54
sg25
I1
sg26
F0.06063947078280044
sg27
I934065
sg28
g6
sg29
g6
sg30
I757301
sg31
g34
ssS'CUMBERLAND MICHAEL S'
p222
(dp223
g3
g34
sg4
g6
sg5
g6
sg7
I717839
sg8
I22344
sg9
g34
sg10
I00
sg11
g6
sg12
g34
sg13
g6
sg15
I275000
sg16
g6
sg17
g6
sg18
g6
sg19
g6
sg20
I713
sg21
g6
sg22
I325000
sg23
I207940
sg24
g6
sg25
g6
sg26
g34
sg27
I207940
sg28
I184899
sg29
I807956
sg30
g6
sg31
F13.484000588902877
ssS'GAHN ROBERT S'
p224
(dp225
g3
g34
sg4
g6
sg5
I73122
sg7
I1020485
sg8
I50080
sg9
g34
sg10
I00
sg11
I-1042
sg12
g34
sg13
g6
sg15
g6
sg16
g6
sg17
g6
sg18
g6
sg19
g6
sg20
I76547
sg21
g6
sg22
I509870
sg23
I318607
sg24
g6
sg25
g6
sg26
g34
sg27
I235370
sg28
I192008
sg29
I900585
sg30
I83237
sg31
F13.835788562446892
ssS'MCCLELLAN GEORGE'
p226
(dp227
g3
F0.0
sg4
I1744
sg5
g6
sg7
I2111274
sg8
I228763
sg9
F0.17029877619481684
sg10
I00
sg11
I-125000
sg12
F0.02981651376146789
sg13
S'george.mcclellan@enron.com'
p228
sg15
g6
sg16
g6
sg17
I1469
sg18
g6
sg19
I49
sg20
I51587
sg21
g6
sg22
I900000
sg23
I947861
sg24
I52
sg25
I0
sg26
F0.029001673173452314
sg27
I441096
sg28
I263413
sg29
I1318763
sg30
I506765
sg31
F14.562802114712715
ssS'HERMANN ROBERT J'
p229
(dp230
g3
g34
sg4
g6
sg5
g6
sg7
I1630795
sg8
I48357
sg9
g34
sg10
I00
sg11
I-280000
sg12
g34
sg13
S'robert.hermann@enron.com'
p231
sg15
I150000
sg16
g6
sg17
g6
sg18
g6
sg19
g6
sg20
I416441
sg21
g6
sg22
I700000
sg23
I668132
sg24
g6
sg25
g6
sg26
g34
sg27
I480632
sg28
I262663
sg29
I1297461
sg30
I187500
sg31
F14.304578183942649
ssS'SCRIMSHAW MATTHEW'
p232
(dp233
g3
g34
sg4
g6
sg5
g6
sg7
g34
sg8
g6
sg9
g34
sg10
I00
sg11
g6
sg12
g34
sg13
S'matthew.scrimshaw@enron.com'
p234
sg15
g6
sg16
g6
sg17
g6
sg18
g6
sg19
g6
sg20
g6
sg21
g6
sg22
g6
sg23
I759557
sg24
g6
sg25
g6
sg26
g34
sg27
g6
sg28
g6
sg29
g6
sg30
I759557
sg31
g34
ssS'GATHMANN WILLIAM D'
p235
(dp236
g3
g34
sg4
g6
sg5
g6
sg7
g34
sg8
g6
sg9
g34
sg10
I00
sg11
g6
sg12
g34
sg13
g6
sg15
g6
sg16
I-72419
sg17
g6
sg18
g6
sg19
g6
sg20
g6
sg21
g6
sg22
g6
sg23
I1945360
sg24
g6
sg25
g6
sg26
g34
sg27
I264013
sg28
g6
sg29
g6
sg30
I1753766
sg31
g34
ssS'HAEDICKE MARK E'
p237
(dp238
g3
F0.03142709943328181
sg4
I4009
sg5
I2157527
sg7
I2327219
sg8
I76169
sg9
F0.20125655686380076
sg10
I00
sg11
I-934484
sg12
F0.04489897730107259
sg13
S'mark.haedicke@enron.com'
p239
sg15
I983346
sg16
I-329825
sg17
I1847
sg18
g6
sg19
I1941
sg20
I52382
sg21
g6
sg22
I1150000
sg23
I803094
sg24
I180
sg25
I61
sg26
F0.04050420168067227
sg27
I524169
sg28
I374125
sg29
I3859065
sg30
I608750
sg31
F14.660184550447436
ssS'BOWEN JR RAYMOND M'
p240
(dp241
g3
F0.5555555555555556
sg4
I1858
sg5
g6
sg7
I1880656
sg8
I65907
sg9
F0.2867544536896948
sg10
I01
sg11
I-833
sg12
F0.07534983853606028
sg13
S'raymond.bowen@enron.com'
p242
sg15
I974293
sg16
g6
sg17
I1593
sg18
g6
sg19
I27
sg20
I1621
sg21
g6
sg22
I1350000
sg23
I252055
sg24
I140
sg25
I15
sg26
F0.08222811671087533
sg27
I252055
sg28
I278601
sg29
I2669589
sg30
g6
sg31
F14.447131210112277
ssS'GILLIS JOHN'
p243
(dp244
g3
g34
sg4
g6
sg5
g6
sg7
g34
sg8
g6
sg9
g34
sg10
I00
sg11
g6
sg12
g34
sg13
g6
sg15
g6
sg16
g6
sg17
g6
sg18
g6
sg19
g6
sg20
g6
sg21
g6
sg22
g6
sg23
I85641
sg24
g6
sg25
g6
sg26
g34
sg27
I75838
sg28
g6
sg29
g6
sg30
I9803
sg31
g34
ssS'FITZGERALD JAY L'
p245
(dp246
g3
F0.5
sg4
I936
sg5
g6
sg7
I2170393
sg8
I23870
sg9
F0.09723055853282465
sg10
I00
sg11
g6
sg12
F0.0010683760683760685
sg13
S'jay.fitzgerald@enron.com'
p247
sg15
I556416
sg16
g6
sg17
I723
sg18
g6
sg19
I16
sg20
I285414
sg21
g6
sg22
I350000
sg23
I1621236
sg24
I1
sg25
I8
sg26
F0.009453781512605041
sg27
I956775
sg28
I199157
sg29
I1414857
sg30
I664461
sg31
F14.590418815109716
ssS'MORAN MICHAEL P'
p248
(dp249
g3
F0.0
sg4
I672
sg5
g6
sg7
g34
sg8
g6
sg9
F0.0
sg10
I00
sg11
g6
sg12
F0.0
sg13
S'michael.moran@enron.com'
p250
sg15
g6
sg16
g6
sg17
I127
sg18
g6
sg19
I19
sg20
g6
sg21
g6
sg22
g6
sg23
I221141
sg24
I0
sg25
I0
sg26
F0.0
sg27
I161602
sg28
g6
sg29
g6
sg30
I59539
sg31
g34
ssS'REDMOND BRIAN L'
p251
(dp252
g3
F0.22171945701357465
sg4
I1671
sg5
g6
sg7
g34
sg8
I14689
sg9
F0.36567872543061364
sg10
I00
sg11
g6
sg12
F0.12208258527827648
sg13
S'brian.redmond@enron.com'
p253
sg15
g6
sg16
g6
sg17
I1063
sg18
g6
sg19
I221
sg20
g6
sg21
g6
sg22
g6
sg23
I7890324
sg24
I204
sg25
I49
sg26
F0.13372093023255813
sg27
I381285
sg28
I96840
sg29
I111529
sg30
I7509039
sg31
g34
ssS'BAZELIDES PHILIP J'
p254
(dp255
g3
g34
sg4
g6
sg5
I684694
sg7
g34
sg8
g6
sg9
g34
sg10
I00
sg11
g6
sg12
g34
sg13
g6
sg15
I93750
sg16
g6
sg17
g6
sg18
g6
sg19
g6
sg20
I874
sg21
g6
sg22
g6
sg23
I1599641
sg24
g6
sg25
g6
sg26
g34
sg27
g6
sg28
I80818
sg29
I860136
sg30
I1599641
sg31
g34
ssS'BELDEN TIMOTHY N'
p256
(dp257
g3
F0.2231404958677686
sg4
I7991
sg5
I2144013
sg7
I6574703
sg8
I17355
sg9
F0.19911307766973782
sg10
I01
sg11
I-2334434
sg12
F0.028532098610937303
sg13
S'tim.belden@enron.com'
p258
sg15
g6
sg16
g6
sg17
I5521
sg18
g6
sg19
I484
sg20
I210698
sg21
g6
sg22
I5249999
sg23
I1110705
sg24
I228
sg25
I108
sg26
F0.03964601769911504
sg27
I157569
sg28
I213999
sg29
I5501630
sg30
I953136
sg31
F15.698739963905195
ssS'DURAN WILLIAM D'
p259
(dp260
g3
F0.25
sg4
I904
sg5
g6
sg7
I2601602
sg8
I25785
sg9
F0.34495743677702173
sg10
I00
sg11
g6
sg12
F0.1172566371681416
sg13
S'w.duran@enron.com'
p261
sg15
I1105218
sg16
g6
sg17
I599
sg18
g6
sg19
I12
sg20
I1568
sg21
g6
sg22
I750000
sg23
I1640910
sg24
I106
sg25
I3
sg26
F0.11899563318777293
sg27
I189041
sg28
I210692
sg29
I2093263
sg30
I1451869
sg31
F14.771637967093021
ssS'THORN TERENCE H'
p262
(dp263
g3
F0.0
sg4
I266
sg5
I16586
sg7
g34
sg8
I46145
sg9
F0.0
sg10
I00
sg11
g6
sg12
F0.0
sg13
S'terence.thorn@enron.com'
p264
sg15
I200000
sg16
g6
sg17
I73
sg18
g6
sg19
I41
sg20
I426629
sg21
g6
sg22
g6
sg23
I4817796
sg24
I0
sg25
I0
sg26
F0.0
sg27
I365320
sg28
I222093
sg29
I911453
sg30
I4452476
sg31
g34
ssS'FASTOW ANDREW S'
p265
(dp266
g3
g34
sg4
g6
sg5
g6
sg7
I3535110
sg8
I55921
sg9
g34
sg10
I01
sg11
I-1386055
sg12
g34
sg13
S'andrew.fastow@enron.com'
p267
sg15
I1736055
sg16
g6
sg17
g6
sg18
g6
sg19
g6
sg20
I277464
sg21
g6
sg22
I1300000
sg23
I1794412
sg24
g6
sg25
g6
sg26
g34
sg27
I1794412
sg28
I440698
sg29
I2424083
sg30
g6
sg31
F15.078254974226128
ssS'FOY JOE'
p268
(dp269
g3
F0.0
sg4
I57
sg5
I181755
sg7
g34
sg8
g6
sg9
F0.0
sg10
I00
sg11
g6
sg12
F0.0
sg13
S'tracy.foy@enron.com'
p270
sg15
g6
sg16
g6
sg17
I2
sg18
g6
sg19
I13
sg20
g6
sg21
g6
sg22
g6
sg23
I343434
sg24
I0
sg25
I0
sg26
F0.0
sg27
g6
sg28
g6
sg29
I181755
sg30
I343434
sg31
g34
ssS'CALGER CHRISTOPHER F'
p271
(dp272
g3
F0.1736111111111111
sg4
I2598
sg5
g6
sg7
I1616216
sg8
I35818
sg9
F0.28581846594954896
sg10
I01
sg11
I-262500
sg12
F0.07659738260200154
sg13
S'christopher.calger@enron.com'
p273
sg15
I375304
sg16
g6
sg17
I2188
sg18
g6
sg19
I144
sg20
I486
sg21
g6
sg22
I1250000
sg23
I126027
sg24
I199
sg25
I25
sg26
F0.08169219547775347
sg27
I126027
sg28
I240189
sg29
I1639297
sg30
g6
sg31
F14.295598172497362
ssS'RICE KENNETH D'
p274
(dp275
g3
F0.2222222222222222
sg4
I905
sg5
g6
sg7
I24713175
sg8
I46950
sg9
F0.22324311066011593
sg10
I01
sg11
I-3504386
sg12
F0.04640883977900553
sg13
S'ken.rice@enron.com'
p276
sg15
I1617011
sg16
g6
sg17
I864
sg18
g6
sg19
I18
sg20
I174839
sg21
g6
sg22
I1750000
sg23
I22542539
sg24
I42
sg25
I4
sg26
F0.04983748645720477
sg27
I2748364
sg28
I420636
sg29
I505050
sg30
I19794175
sg31
F17.022847060200277
ssS'KAMINSKI WINCENTY J'
p277
(dp278
g3
F0.011901447661469933
sg4
I4607
sg5
g6
sg7
I1651138
sg8
I83585
sg9
F0.10570049914934937
sg10
I00
sg11
g6
sg12
F0.008899500759713479
sg13
S'vince.kaminski@enron.com'
p279
sg15
I323466
sg16
g6
sg17
I583
sg18
g6
sg19
I14368
sg20
I4669
sg21
g6
sg22
I400000
sg23
I976037
sg24
I41
sg25
I171
sg26
F0.011172595520421607
sg27
I126027
sg28
I275101
sg29
I1086821
sg30
I850010
sg31
F14.316975305114807
ssS'LOCKHART EUGENE E'
p280
(dp281
g3
g34
sg4
g6
sg5
g6
sg7
g34
sg8
g6
sg9
g34
sg10
I00
sg11
g6
sg12
g34
sg13
g6
sg15
g6
sg16
g6
sg17
g6
sg18
g6
sg19
g6
sg20
g6
sg21
g6
sg22
g6
sg23
g6
sg24
g6
sg25
g6
sg26
g34
sg27
g6
sg28
g6
sg29
g6
sg30
g6
sg31
g34
ssS'COX DAVID'
p282
(dp283
g3
F0.12121212121212122
sg4
I102
sg5
g6
sg7
I1609921
sg8
I27861
sg9
F0.17213259316477408
sg10
I00
sg11
I-41250
sg12
F0.0
sg13
S'chip.cox@enron.com'
p284
sg15
g6
sg16
g6
sg17
I71
sg18
g6
sg19
I33
sg20
I494
sg21
g6
sg22
I800000
sg23
I495633
sg24
I0
sg25
I4
sg26
F0.02962962962962963
sg27
I378082
sg28
I314288
sg29
I1101393
sg30
I117551
sg31
F14.291695667433775
ssS'OVERDYKE JR JERE C'
p285
(dp286
g3
g34
sg4
g6
sg5
g6
sg7
g34
sg8
I18834
sg9
g34
sg10
I00
sg11
g6
sg12
g34
sg13
S'jere.overdyke@enron.com'
p287
sg15
I135836
sg16
g6
sg17
g6
sg18
g6
sg19
g6
sg20
I176
sg21
g6
sg22
g6
sg23
I7307594
sg24
g6
sg25
g6
sg26
g34
sg27
I2041016
sg28
I94941
sg29
I249787
sg30
I5266578
sg31
g34
ssS'PEREIRA PAULO V. FERRAZ'
p288
(dp289
g3
g34
sg4
g6
sg5
g6
sg7
g34
sg8
I27942
sg9
g34
sg10
I00
sg11
I-101250
sg12
g34
sg13
g6
sg15
g6
sg16
g6
sg17
g6
sg18
g6
sg19
g6
sg20
g6
sg21
I101250
sg22
g6
sg23
g6
sg24
g6
sg25
g6
sg26
g34
sg27
g6
sg28
g6
sg29
I27942
sg30
g6
sg31
g34
ssS'STABLER FRANK'
p290
(dp291
g3
g34
sg4
g6
sg5
g6
sg7
I1251236
sg8
I16514
sg9
g34
sg10
I00
sg11
g6
sg12
g34
sg13
S'frank.stabler@enron.com'
p292
sg15
g6
sg16
g6
sg17
g6
sg18
g6
sg19
g6
sg20
I356071
sg21
g6
sg22
I500000
sg23
I511734
sg24
g6
sg25
g6
sg26
g34
sg27
I511734
sg28
I239502
sg29
I1112087
sg30
g6
sg31
F14.039642420737783
ssS'SKILLING JEFFREY K'
p293
(dp294
g3
F0.2777777777777778
sg4
I3627
sg5
g6
sg7
I32804930
sg8
I29336
sg9
F0.17774430742489192
sg10
I01
sg11
g6
sg12
F0.0242624758753791
sg13
S'jeff.skilling@enron.com'
p295
sg15
I1920000
sg16
g6
sg17
I2042
sg18
g6
sg19
I108
sg20
I22122
sg21
g6
sg22
I5600000
sg23
I26093672
sg24
I88
sg25
I30
sg26
F0.03159303882195449
sg27
I6843672
sg28
I1111258
sg29
I8682716
sg30
I19250000
sg31
F17.306089366937776
ssS'BLAKE JR. NORMAN P'
p296
(dp297
g3
g34
sg4
g6
sg5
g6
sg7
g34
sg8
I1279
sg9
g34
sg10
I00
sg11
I-113784
sg12
g34
sg13
g6
sg15
g6
sg16
g6
sg17
g6
sg18
g6
sg19
g6
sg20
g6
sg21
I113784
sg22
g6
sg23
g6
sg24
g6
sg25
g6
sg26
g34
sg27
g6
sg28
g6
sg29
I1279
sg30
g6
sg31
g34
ssS'SHERRICK JEFFREY B'
p298
(dp299
g3
F0.72
sg4
I613
sg5
g6
sg7
g34
sg8
g6
sg9
F0.2989008076100977
sg10
I00
sg11
g6
sg12
F0.0636215334420881
sg13
S'jeffrey.sherrick@enron.com'
p300
sg15
g6
sg16
g6
sg17
I583
sg18
g6
sg19
I25
sg20
g6
sg21
g6
sg22
g6
sg23
I1832468
sg24
I39
sg25
I18
sg26
F0.08934169278996865
sg27
I405999
sg28
g6
sg29
g6
sg30
I1426469
sg31
g34
ssS'PRENTICE JAMES'
p301
(dp302
g3
g34
sg4
g6
sg5
I564348
sg7
g34
sg8
g6
sg9
g34
sg10
I00
sg11
g6
sg12
g34
sg13
S'james.prentice@enron.com'
p303
sg15
g6
sg16
g6
sg17
g6
sg18
g6
sg19
g6
sg20
g6
sg21
g6
sg22
g6
sg23
I1095040
sg24
g6
sg25
g6
sg26
g34
sg27
I208809
sg28
g6
sg29
I564348
sg30
I886231
sg31
g34
ssS'GRAY RODNEY'
p304
(dp305
g3
g34
sg4
g6
sg5
I93585
sg7
g34
sg8
g6
sg9
g34
sg10
I00
sg11
g6
sg12
g34
sg13
g6
sg15
I365625
sg16
g6
sg17
g6
sg18
g6
sg19
g6
sg20
I680833
sg21
g6
sg22
g6
sg23
g6
sg24
g6
sg25
g6
sg26
g34
sg27
g6
sg28
I6615
sg29
I1146658
sg30
g6
sg31
g34
ssS'PICKERING MARK R'
p306
(dp307
g3
F0.0
sg4
I898
sg5
g6
sg7
I983835
sg8
I31653
sg9
F0.08516974821122048
sg10
I00
sg11
g6
sg12
F0.0077951002227171495
sg13
S'mark.pickering@enron.com'
p308
sg15
g6
sg16
g6
sg17
I728
sg18
I400000
sg19
I67
sg20
g6
sg21
g6
sg22
I300000
sg23
I28798
sg24
I7
sg25
I0
sg26
F0.007253886010362694
sg27
g6
sg28
I655037
sg29
I1386690
sg30
I28798
sg31
F13.799213479047207
ssS'NOLES JAMES L'
p309
(dp310
g3
g34
sg4
g6
sg5
I774401
sg7
g34
sg8
g6
sg9
g34
sg10
I00
sg11
g6
sg12
g34
sg13
g6
sg15
g6
sg16
I-94556
sg17
g6
sg18
g6
sg19
g6
sg20
g6
sg21
g6
sg22
g6
sg23
I368705
sg24
g6
sg25
g6
sg26
g34
sg27
I463261
sg28
g6
sg29
I774401
sg30
g6
sg31
g34
ssS'KEAN STEVEN J'
p311
(dp312
g3
F0.05725699067909454
sg4
I12754
sg5
g6
sg7
I7557980
sg8
I41953
sg9
F0.16434000101928223
sg10
I00
sg11
g6
sg12
F0.010976948408342482
sg13
S'steven.kean@enron.com'
p313
sg15
I300000
sg16
g6
sg17
I3639
sg18
g6
sg19
I6759
sg20
I1231
sg21
g6
sg22
I1000000
sg23
I6153642
sg24
I140
sg25
I387
sg26
F0.02700763593501768
sg27
I4131594
sg28
I404338
sg29
I1747522
sg30
I2022048
sg31
F15.838114516685371
ssS'FOWLER PEGGY'
p314
(dp315
g3
F0.0
sg4
I517
sg5
g6
sg7
g34
sg8
g6
sg9
F0.0
sg10
I00
sg11
g6
sg12
F0.0
sg13
S'kulvinder.fowler@enron.com'
p316
sg15
g6
sg16
g6
sg17
I10
sg18
g6
sg19
I36
sg20
g6
sg21
g6
sg22
g6
sg23
I1884748
sg24
I0
sg25
I0
sg26
F0.0
sg27
I560170
sg28
g6
sg29
g6
sg30
I1324578
sg31
g34
ssS'WASAFF GEORGE'
p317
(dp318
g3
F0.23333333333333334
sg4
I400
sg5
I831299
sg7
I2641423
sg8
g6
sg9
F0.25969570744453263
sg10
I00
sg11
I-583325
sg12
F0.055
sg13
S'george.wasaff@enron.com'
p319
sg15
I200000
sg16
g6
sg17
I337
sg18
g6
sg19
I30
sg20
I1425
sg21
g6
sg22
I325000
sg23
I2056427
sg24
I22
sg25
I7
sg26
F0.06744186046511629
sg27
I388167
sg28
I259996
sg29
I1034395
sg30
I1668260
sg31
F14.786828345057527
ssS'WHITE JR THOMAS E'
p320
(dp321
g3
g34
sg4
g6
sg5
g6
sg7
I15911666
sg8
I81353
sg9
g34
sg10
I00
sg11
g6
sg12
g34
sg13
S'thomas.white@enron.com'
p322
sg15
g6
sg16
g6
sg17
g6
sg18
g6
sg19
g6
sg20
I1085463
sg21
g6
sg22
I450000
sg23
I15144123
sg24
g6
sg25
g6
sg26
g34
sg27
I13847074
sg28
I317543
sg29
I1934359
sg30
I1297049
sg31
F16.58256310884818
ssS'CHRISTODOULOU DIOMEDES'
p323
(dp324
g3
g34
sg4
g6
sg5
g6
sg7
g34
sg8
g6
sg9
g34
sg10
I00
sg11
g6
sg12
g34
sg13
S'diomedes.christodoulou@enron.com'
p325
sg15
g6
sg16
g6
sg17
g6
sg18
g6
sg19
g6
sg20
g6
sg21
g6
sg22
g6
sg23
I6077885
sg24
g6
sg25
g6
sg26
g34
sg27
I950730
sg28
g6
sg29
g6
sg30
I5127155
sg31
g34
ssS'ALLEN PHILLIP K'
p326
(dp327
g3
F0.029612756264236904
sg4
I2902
sg5
I2869717
sg7
I6106496
sg8
I13868
sg9
F0.14823531976389837
sg10
I00
sg11
I-3081055
sg12
F0.016195727084769126
sg13
S'phillip.allen@enron.com'
p328
sg15
I304805
sg16
I-126027
sg17
I1407
sg18
g6
sg19
I2195
sg20
I152
sg21
g6
sg22
I4175000
sg23
I1729541
sg24
I47
sg25
I65
sg26
F0.0219737100255052
sg27
I126027
sg28
I201955
sg29
I4484442
sg30
I1729541
sg31
F15.624863680553354
ssS'SHARP VICTORIA T'
p329
(dp330
g3
F0.04411764705882353
sg4
I3136
sg5
I187469
sg7
I1342282
sg8
I116337
sg9
F0.09575335062795044
sg10
I00
sg11
g6
sg12
F0.007653061224489796
sg13
S'vicki.sharp@enron.com'
p331
sg15
I422158
sg16
g6
sg17
I2477
sg18
g6
sg19
I136
sg20
I2401
sg21
g6
sg22
I600000
sg23
I494136
sg24
I24
sg25
I6
sg26
F0.009168704156479218
sg27
I213063
sg28
I248146
sg29
I1576511
sg30
I281073
sg31
F14.109881708566848
ssS'JAEDICKE ROBERT'
p332
(dp333
g3
g34
sg4
g6
sg5
g6
sg7
g34
sg8
g6
sg9
g34
sg10
I00
sg11
I-25000
sg12
g34
sg13
g6
sg15
g6
sg16
I-44093
sg17
g6
sg18
g6
sg19
g6
sg20
g6
sg21
I108750
sg22
g6
sg23
I431750
sg24
g6
sg25
g6
sg26
g34
sg27
I44093
sg28
g6
sg29
I83750
sg30
I431750
sg31
g34
ssS'WINOKUR JR. HERBERT S'
p334
(dp335
g3
g34
sg4
g6
sg5
g6
sg7
g34
sg8
I1413
sg9
g34
sg10
I00
sg11
I-25000
sg12
g34
sg13
g6
sg15
g6
sg16
g6
sg17
g6
sg18
g6
sg19
g6
sg20
g6
sg21
I108579
sg22
g6
sg23
g6
sg24
g6
sg25
g6
sg26
g34
sg27
g6
sg28
g6
sg29
I84992
sg30
g6
sg31
g34
ssS'BROWN MICHAEL'
p336
(dp337
g3
F0.024390243902439025
sg4
I1486
sg5
g6
sg7
g34
sg8
I49288
sg9
F0.095751260377006
sg10
I00
sg11
g6
sg12
F0.008748317631224764
sg13
S'michael.brown@enron.com'
p338
sg15
g6
sg16
g6
sg17
I761
sg18
g6
sg19
I41
sg20
g6
sg21
g6
sg22
g6
sg23
g6
sg24
I13
sg25
I1
sg26
F0.0091683038637852
sg27
g6
sg28
g6
sg29
I49288
sg30
g6
sg31
g34
ssS'BADUM JAMES P'
p339
(dp340
g3
g34
sg4
g6
sg5
I178980
sg7
g34
sg8
I3486
sg9
g34
sg10
I00
sg11
g6
sg12
g34
sg13
g6
sg15
g6
sg16
g6
sg17
g6
sg18
g6
sg19
g6
sg20
g6
sg21
g6
sg22
g6
sg23
I257817
sg24
g6
sg25
g6
sg26
g34
sg27
g6
sg28
g6
sg29
I182466
sg30
I257817
sg31
g34
ssS'HUGHES JAMES A'
p341
(dp342
g3
F0.14705882352941177
sg4
I719
sg5
g6
sg7
g34
sg8
g6
sg9
F0.23047960849845034
sg10
I00
sg11
g6
sg12
F0.048678720445062586
sg13
S'james.hughes@enron.com'
p343
sg15
g6
sg16
g6
sg17
I589
sg18
g6
sg19
I34
sg20
g6
sg21
g6
sg22
g6
sg23
I1118394
sg24
I35
sg25
I5
sg26
F0.05312084993359894
sg27
I363428
sg28
g6
sg29
g6
sg30
I754966
sg31
g34
ssS'REYNOLDS LAWRENCE'
p344
(dp345
g3
g34
sg4
g6
sg5
I51365
sg7
I4398290
sg8
I8409
sg9
g34
sg10
I00
sg11
I-200000
sg12
g34
sg13
g6
sg15
I156250
sg16
I-140264
sg17
g6
sg18
g6
sg19
g6
sg20
I202052
sg21
g6
sg22
I100000
sg23
I4221891
sg24
g6
sg25
g6
sg26
g34
sg27
I201483
sg28
I76399
sg29
I394475
sg30
I4160672
sg31
F15.296726386986169
ssS'DIMICHELE RICHARD G'
p346
(dp347
g3
g34
sg4
g6
sg5
g6
sg7
I9580570
sg8
I35812
sg9
g34
sg10
I00
sg11
g6
sg12
g34
sg13
S'richard.dimichele@enron.com'
p348
sg15
I694862
sg16
g6
sg17
g6
sg18
g6
sg19
g6
sg20
I374689
sg21
g6
sg22
I1000000
sg23
I8317782
sg24
g6
sg25
g6
sg26
g34
sg27
I126027
sg28
I262788
sg29
I2368151
sg30
I8191755
sg31
F16.07524764713321
ssS'BHATNAGAR SANJAY'
p349
(dp350
g3
F0.034482758620689655
sg4
I523
sg5
g6
sg7
g34
sg8
g6
sg9
F0.04256282653793743
sg10
I00
sg11
g6
sg12
F0.0
sg13
S'sanjay.bhatnagar@enron.com'
p351
sg15
g6
sg16
I15456290
sg17
I463
sg18
g6
sg19
I29
sg20
I137864
sg21
I137864
sg22
g6
sS'total_stock_value'
p352
S'NaN'
p353
sg24
I0
sg25
I1
sg26
F0.0018115942028985507
sg27
I-2604490
sg28
g6
sg29
I15456290
sg30
I2604490
sg31
g34
ssS'CARTER REBECCA C'
p354
(dp355
g3
F0.4666666666666667
sg4
I312
sg5
g6
sg7
g34
sg8
g6
sg9
F0.3318007581655986
sg10
I00
sg11
I-159792
sg12
F0.09294871794871795
sg13
S'rebecca.carter@enron.com'
p356
sg15
I75000
sg16
I-307301
sg17
I196
sg18
g6
sg19
I15
sg20
I540
sg21
g6
sg22
I300000
sg23
g6
sg24
I29
sg25
I7
sg26
F0.11009174311926606
sg27
I307301
sg28
I261809
sg29
I477557
sg30
g6
sg31
g34
ssS'BUCHANAN HAROLD G'
p357
(dp358
g3
F0.0
sg4
I1088
sg5
g6
sg7
I1762522
sg8
I600
sg9
F0.0
sg10
I00
sg11
g6
sg12
F0.0
sg13
S'john.buchanan@enron.com'
p359
sg15
I304805
sg16
g6
sg17
I23
sg18
g6
sg19
I125
sg20
I1215
sg21
g6
sg22
I500000
sg23
I1014505
sg24
I0
sg25
I0
sg26
F0.0
sg27
I189041
sg28
I248017
sg29
I1054637
sg30
I825464
sg31
F14.382256295860161
ssS'YEAP SOON'
p360
(dp361
g3
g34
sg4
g6
sg5
g6
sg7
g34
sg8
I55097
sg9
g34
sg10
I00
sg11
g6
sg12
g34
sg13
g6
sg15
g6
sg16
g6
sg17
g6
sg18
g6
sg19
g6
sg20
g6
sg21
g6
sg22
g6
sg23
I192758
sg24
g6
sg25
g6
sg26
g34
sg27
g6
sg28
g6
sg29
I55097
sg30
I192758
sg31
g34
ssS'MURRAY JULIA H'
p362
(dp363
g3
F0.044444444444444446
sg4
I2192
sg5
g6
sg7
I1226745
sg8
I57580
sg9
F0.07623224050638976
sg10
I00
sg11
g6
sg12
F0.005018248175182482
sg13
S'julia.murray@enron.com'
p364
sg15
I125000
sg16
g6
sg17
I395
sg18
g6
sg19
I45
sg20
I330
sg21
g6
sg22
I400000
sg23
I597461
sg24
I11
sg25
I2
sg26
F0.00581135449262405
sg27
I196983
sg28
I229284
sg29
I812194
sg30
I400478
sg31
F14.019874878133777
ssS'GARLAND C KEVIN'
p365
(dp366
g3
F0.6136363636363636
sg4
I209
sg5
g6
sg7
I1978099
sg8
I48405
sg9
F0.3824200037766559
sg10
I00
sg11
g6
sg12
F0.04784688995215311
sg13
S'kevin.garland@enron.com'
p367
sg15
I375304
sg16
g6
sg17
I178
sg18
g6
sg19
I44
sg20
I60814
sg21
g6
sg22
I850000
sg23
I896153
sg24
I10
sg25
I27
sg26
F0.14624505928853754
sg27
I259907
sg28
I231946
sg29
I1566469
sg30
I636246
sg31
F14.497646840468425
ssS'DODSON KEITH'
p368
(dp369
g3
F0.21428571428571427
sg4
I176
sg5
g6
sg7
g34
sg8
I28164
sg9
F0.26157418189029846
sg10
I00
sg11
g6
sg12
F0.056818181818181816
sg13
S'keith.dodson@enron.com'
p370
sg15
g6
sg16
g6
sg17
I114
sg18
g6
sg19
I14
sg20
I774
sg21
g6
sg22
I70000
sg23
g6
sg24
I10
sg25
I3
sg26
F0.06842105263157895
sg27
g6
sg28
I221003
sg29
I319941
sg30
g6
sg31
g34
ssS'YEAGER F SCOTT'
p371
(dp372
g3
g34
sg4
g6
sg5
g6
sg7
g34
sg8
I53947
sg9
g34
sg10
I01
sg11
g6
sg12
g34
sg13
S'scott.yeager@enron.com'
p373
sg15
g6
sg16
g6
sg17
g6
sg18
g6
sg19
g6
sg20
I147950
sg21
g6
sg22
g6
sg23
I11884758
sg24
g6
sg25
g6
sg26
g34
sg27
I3576206
sg28
I158403
sg29
I360300
sg30
I8308552
sg31
g34
ssS'HIRKO JOSEPH'
p374
(dp375
g3
g34
sg4
g6
sg5
I10259
sg7
g34
sg8
I77978
sg9
g34
sg10
I01
sg11
g6
sg12
g34
sg13
S'joe.hirko@enron.com'
p376
sg15
g6
sg16
g6
sg17
g6
sg18
g6
sg19
g6
sg20
I2856
sg21
g6
sg22
g6
sg23
I30766064
sg24
g6
sg25
g6
sg26
g34
sg27
g6
sg28
g6
sg29
I91093
sg30
I30766064
sg31
g34
ssS'DIETRICH JANET R'
p377
(dp378
g3
F0.2222222222222222
sg4
I2572
sg5
g6
sg7
I2715187
sg8
I3475
sg9
F0.3479405388795985
sg10
I00
sg11
g6
sg12
F0.11858475894245724
sg13
S'janet.dietrich@enron.com'
p379
sg15
I556416
sg16
g6
sg17
I1902
sg18
g6
sg19
I63
sg20
I473
sg21
g6
sg22
I600000
sg23
I1865087
sg24
I305
sg25
I14
sg26
F0.12106261859582543
sg27
I315068
sg28
I250100
sg29
I1410464
sg30
I1550019
sg31
F14.814371385589705
ssS'DERRICK JR. JAMES V'
p380
(dp381
g3
F0.022002200220022004
sg4
I2181
sg5
g6
sg7
I10124288
sg8
I51124
sg9
F0.16487712400274782
sg10
I00
sg11
I-1284000
sg12
F0.029344337459880788
sg13
S'james.derrick@enron.com'
p382
sg15
I484000
sg16
I-1787380
sg17
I1401
sg18
g6
sg19
I909
sg20
I7482
sg21
g6
sg22
I800000
sg23
I8831913
sg24
I64
sg25
I20
sg26
F0.027184466019417475
sg27
I1787380
sg28
I492375
sg29
I550981
sg30
I8831913
sg31
F16.130447847496587
ssS'FREVERT MARK A'
p383
(dp384
g3
F0.2857142857142857
sg4
I3275
sg5
I6426990
sg7
I17683117
sg8
I86987
sg9
F0.27430406203080904
sg10
I00
sg11
I-3367011
sg12
F0.07389312977099237
sg13
S'mark.frevert@enron.com'
p385
sg15
I1617011
sg16
g6
sg17
I2979
sg18
I2000000
sg19
I21
sg20
I7427621
sg21
g6
sg22
I2000000
sg23
I14622185
sg24
I242
sg25
I6
sg26
F0.07524271844660194
sg27
I4188667
sg28
I1060932
sg29
I17252530
sg30
I10433518
sg31
F16.68812090053957
ssS'PAI LOU L'
p386
(dp387
g3
g34
sg4
g6
sg5
g6
sg7
I25079809
sg8
I32047
sg9
g34
sg10
I00
sg11
g6
sg12
g34
sg13
S'lou.pai@enron.com'
p388
sg15
g6
sg16
g6
sg17
g6
sg18
g6
sg19
g6
sg20
I1829457
sg21
g6
sg22
I1000000
sg23
I23817930
sg24
g6
sg25
g6
sg26
g34
sg27
I8453763
sg28
I261879
sg29
I3123383
sg30
I15364167
sg31
F17.03757365807001
ssS'BAY FRANKLIN R'
p389
(dp390
g3
g34
sg4
g6
sg5
I260455
sg7
I702685
sg8
I129142
sg9
g34
sg10
I00
sg11
I-201641
sg12
g34
sg13
S'frank.bay@enron.com'
p391
sg15
g6
sg16
I-82782
sg17
g6
sg18
g6
sg19
g6
sg20
I69
sg21
g6
sg22
I400000
sg23
I63014
sg24
g6
sg25
g6
sg26
g34
sg27
I145796
sg28
I239671
sg29
I827696
sg30
g6
sg31
F13.462663990716507
ssS'HAYSLETT RODERICK J'
p392
(dp393
g3
F0.03581526861451461
sg4
I2649
sg5
g6
sg7
g34
sg8
g6
sg9
F0.14027312595514907
sg10
I00
sg11
g6
sg12
F0.01321253303133258
sg13
S'rod.hayslett@enron.com'
p394
sg15
g6
sg16
g6
sg17
I571
sg18
g6
sg19
I1061
sg20
g6
sg21
g6
sg22
g6
sg23
I346663
sg24
I35
sg25
I38
sg26
F0.019676549865229112
sg27
I346663
sg28
g6
sg29
g6
sg30
g6
sg31
g34
ssS'FUGH JOHN L'
p395
(dp396
g3
g34
sg4
g6
sg5
I50591
sg7
g34
sg8
g6
sg9
g34
sg10
I00
sg11
g6
sg12
g34
sg13
g6
sg15
g6
sg16
g6
sg17
g6
sg18
g6
sg19
g6
sg20
g6
sg21
g6
sg22
g6
sg23
I176378
sg24
g6
sg25
g6
sg26
g34
sg27
g6
sg28
g6
sg29
I50591
sg30
I176378
sg31
g34
ssS'FALLON JAMES B'
p397
(dp398
g3
F0.49333333333333335
sg4
I1755
sg5
g6
sg7
I5136987
sg8
I95924
sg9
F0.20777246907880703
sg10
I00
sg11
g6
sg12
F0.023931623931623933
sg13
S'jim.fallon@enron.com'
p399
sg15
I374347
sg16
g6
sg17
I1604
sg18
g6
sg19
I75
sg20
I401481
sg21
g6
sg22
I2500000
sg23
I2332399
sg24
I42
sg25
I37
sg26
F0.04316939890710383
sg27
I1392142
sg28
I304588
sg29
I3676340
sg30
I940257
sg31
F15.451977278786284
ssS'KOENIG MARK E'
p400
(dp401
g3
F0.2459016393442623
sg4
I2374
sg5
g6
sg7
I2930001
sg8
I127017
sg9
F0.16711097518938556
sg10
I01
sg11
g6
sg12
F0.02232518955349621
sg13
S'mark.koenig@enron.com'
p402
sg15
I300000
sg16
g6
sg17
I2271
sg18
g6
sg19
I61
sg20
I150458
sg21
g6
sg22
I700000
sg23
I1920055
sg24
I53
sg25
I15
sg26
F0.02792607802874743
sg27
I1248318
sg28
I309946
sg29
I1587421
sg30
I671737
sg31
F14.89051332229012
ssS'SAVAGE FRANK'
p403
(dp404
g3
g34
sg4
g6
sg5
g6
sg7
g34
sg8
g6
sg9
g34
sg10
I00
sg11
I-121284
sg12
g34
sg13
g6
sg15
g6
sg16
g6
sg17
g6
sg18
g6
sg19
g6
sg20
g6
sg21
I125034
sg22
g6
sg23
g6
sg24
g6
sg25
g6
sg26
g34
sg27
g6
sg28
g6
sg29
I3750
sg30
g6
sg31
g34
ssS'IZZO LAWRENCE L'
p405
(dp406
g3
F0.2631578947368421
sg4
I496
sg5
g6
sg7
g34
sg8
I28093
sg9
F0.25313567489177147
sg10
I00
sg11
g6
sg12
F0.056451612903225805
sg13
S'larry.izzo@enron.com'
p407
sg15
I312500
sg16
g6
sg17
I437
sg18
g6
sg19
I19
sg20
I1553729
sg21
g6
sg22
g6
sg23
I5819980
sg24
I28
sg25
I5
sg26
F0.06407766990291262
sg27
I3654808
sg28
I85274
sg29
I1979596
sg30
I2165172
sg31
g34
ssS'TILNEY ELIZABETH A'
p408
(dp409
g3
F0.5789473684210527
sg4
I460
sg5
g6
sg7
I1715380
sg8
g6
sg9
F0.2093832278787158
sg10
I00
sg11
I-575000
sg12
F0.021739130434782608
sg13
S'elizabeth.tilney@enron.com'
p410
sg15
I275000
sg16
g6
sg17
I379
sg18
g6
sg19
I19
sg20
I152055
sg21
g6
sg22
I300000
sg23
I1168042
sg24
I10
sg25
I11
sg26
F0.04384133611691023
sg27
I576792
sg28
I247338
sg29
I399393
sg30
I591250
sg31
F14.355145188382231
ssS'MARTIN AMANDA K'
p411
(dp412
g3
F0.0
sg4
I1522
sg5
I85430
sg7
g34
sg8
I8211
sg9
F0.06757373783994859
sg10
I00
sg11
g6
sg12
F0.005256241787122208
sg13
S'a..martin@enron.com'
p413
sg15
I5145434
sg16
g6
sg17
I477
sg18
g6
sg19
I230
sg20
I2818454
sg21
g6
sg22
g6
sg23
I2070306
sg24
I8
sg25
I0
sg26
F0.0045662100456621
sg27
g6
sg28
I349487
sg29
I8407016
sg30
I2070306
sg31
g34
ssS'BUY RICHARD B'
p414
(dp415
g3
F0.06742640075973409
sg4
I3523
sg5
I649584
sg7
I4675016
sg8
g6
sg9
F0.22272548878977314
sg10
I00
sg11
I-694862
sg12
F0.04428044280442804
sg13
S'rick.buy@enron.com'
p416
sg15
I769862
sg16
g6
sg17
I2333
sg18
g6
sg19
I1053
sg20
I400572
sg21
g6
sg22
I900000
sg23
I3444470
sg24
I156
sg25
I71
sg26
F0.04960664335664336
sg27
I901657
sg28
I330546
sg29
I2355702
sg30
I2542813
sg31
F15.357743143158961
ssS'GRAMM WENDY L'
p417
(dp418
g3
g34
sg4
g6
sg5
g6
sg7
g34
sg8
g6
sg9
g34
sg10
I00
sg11
g6
sg12
g34
sg13
g6
sg15
g6
sg16
g6
sg17
g6
sg18
g6
sg19
g6
sg20
g6
sg21
I119292
sg22
g6
sg23
g6
sg24
g6
sg25
g6
sg26
g34
sg27
g6
sg28
g6
sg29
I119292
sg30
g6
sg31
g34
ssS'CAUSEY RICHARD A'
p419
(dp420
g3
F0.24489795918367346
sg4
I1892
sg5
g6
sg7
I3917252
sg8
I30674
sg9
F0.1899049356798535
sg10
I01
sg11
I-235000
sg12
F0.0306553911205074
sg13
S'richard.causey@enron.com'
p421
sg15
I350000
sg16
g6
sg17
I1585
sg18
g6
sg19
I49
sg20
I307895
sg21
g6
sg22
I1000000
sg23
I2502063
sg24
I58
sg25
I12
sg26
F0.03606388459556929
sg27
I2502063
sg28
I415189
sg29
I1868758
sg30
g6
sg31
F15.180900945528782
ssS'TAYLOR MITCHELL S'
p422
(dp423
g3
F0.0
sg4
I533
sg5
I227449
sg7
I4610262
sg8
g6
sg9
F0.0
sg10
I00
sg11
g6
sg12
F0.0
sg13
S'mitchell.taylor@enron.com'
p424
sg15
g6
sg16
g6
sg17
I300
sg18
g6
sg19
I29
sg20
g6
sg21
g6
sg22
I600000
sg23
I3745048
sg24
I0
sg25
I0
sg26
F0.0
sg27
I563798
sg28
I265214
sg29
I1092663
sg30
I3181250
sg31
F15.3437952463297
ssS'DONAHUE JR JEFFREY M'
p425
(dp426
g3
F0.5
sg4
I865
sg5
g6
sg7
I2159589
sg8
I96268
sg9
F0.4736578379625525
sg10
I00
sg11
I-300000
sg12
F0.21734104046242775
sg13
S'jeff.donahue@enron.com'
p427
sg15
g6
sg16
g6
sg17
I772
sg18
g6
sg19
I22
sg20
I891
sg21
g6
sg22
I800000
sg23
I1080988
sg24
I188
sg25
I11
sg26
F0.22435174746335965
sg27
I315068
sg28
I278601
sg29
I875760
sg30
I765920
sg31
F14.585428483777457
ssS'GLISAN JR BEN F'
p428
(dp429
g3
F0.375
sg4
I873
sg5
g6
sg7
I1653521
sg8
I125978
sg9
F0.2554248319357455
sg10
I01
sg11
g6
sg12
F0.05956471935853379
sg13
S'ben.glisan@enron.com'
p430
sg15
I71023
sg16
g6
sg17
I874
sg18
g6
sg19
I16
sg20
I200308
sg21
g6
sg22
I600000
sg23
I778546
sg24
I52
sg25
I6
sg26
F0.06524184476940383
sg27
I393818
sg28
I274975
sg29
I1272284
sg30
I384728
sg31
F14.318417511655964
ss.