(lp0
S'poi'
p1
aS'to_poi_percentage'
p2
aS'to_messages'
p3
aS'deferral_payments'
p4
aS'total_employee_worth'
p5
aS'expenses'
p6
aS'sqrt_total_poi_percentage'
p7
aS'deferred_income'
p8
aS'from_poi_percentage'
p9
aS'from_poi_to_this_person'
p10
aS'restricted_stock_deferred'
p11
aS'shared_receipt_with_poi'
p12
aS'loan_advances'
p13
aS'from_messages'
p14
aS'other'
p15
aS'director_fees'
p16
aS'bonus'
p17
aS'total_stock_value'
p18
aS'from_this_person_to_poi'
p19
aS'total_poi_percentage'
p20
aS'restricted_stock'
p21
aS'salary'
p22
aS'total_payments'
p23
aS'long_term_incentive'
p24
aS'exercised_stock_options'
p25
aS'log_total_employee_worth'
p26
a.